
STM32f4xx_drivers.elf:     file format elf32-littlearm

Sections:
Idx Name          Size      VMA       LMA       File off  Algn
  0 .isr_vector   000001a8  08000000  08000000  00010000  2**0
                  CONTENTS, ALLOC, LOAD, READONLY, DATA
  1 .text         00000570  080001a8  080001a8  000101a8  2**2
                  CONTENTS, ALLOC, LOAD, READONLY, CODE
  2 .rodata       00000000  08000718  08000720  00010720  2**0
                  CONTENTS, ALLOC, LOAD, DATA
  3 .ARM.extab    00000000  08000718  08000718  00010720  2**0
                  CONTENTS
  4 .ARM          00000000  08000718  08000718  00010720  2**0
                  CONTENTS
  5 .preinit_array 00000000  08000718  08000720  00010720  2**0
                  CONTENTS, ALLOC, LOAD, DATA
  6 .init_array   00000004  08000718  08000718  00010718  2**2
                  CONTENTS, ALLOC, LOAD, DATA
  7 .fini_array   00000004  0800071c  0800071c  0001071c  2**2
                  CONTENTS, ALLOC, LOAD, DATA
  8 .data         00000000  20000000  20000000  00010720  2**0
                  CONTENTS, ALLOC, LOAD, DATA
  9 .bss          0000001c  20000000  08000720  00020000  2**2
                  ALLOC
 10 ._user_heap_stack 00000604  2000001c  08000720  0002001c  2**0
                  ALLOC
 11 .ARM.attributes 00000030  00000000  00000000  00010720  2**0
                  CONTENTS, READONLY
 12 .debug_info   000007d1  00000000  00000000  00010750  2**0
                  CONTENTS, READONLY, DEBUGGING
 13 .debug_abbrev 000001e7  00000000  00000000  00010f21  2**0
                  CONTENTS, READONLY, DEBUGGING
 14 .debug_aranges 000000b8  00000000  00000000  00011108  2**3
                  CONTENTS, READONLY, DEBUGGING
 15 .debug_ranges 00000090  00000000  00000000  000111c0  2**3
                  CONTENTS, READONLY, DEBUGGING
 16 .debug_macro  00001322  00000000  00000000  00011250  2**0
                  CONTENTS, READONLY, DEBUGGING
 17 .debug_line   00000a4e  00000000  00000000  00012572  2**0
                  CONTENTS, READONLY, DEBUGGING
 18 .debug_str    000052f2  00000000  00000000  00012fc0  2**0
                  CONTENTS, READONLY, DEBUGGING
 19 .comment      0000007b  00000000  00000000  000182b2  2**0
                  CONTENTS, READONLY
 20 .debug_frame  00000224  00000000  00000000  00018330  2**2
                  CONTENTS, READONLY, DEBUGGING

Disassembly of section .text:

080001a8 <__do_global_dtors_aux>:
 80001a8:	b510      	push	{r4, lr}
 80001aa:	4c05      	ldr	r4, [pc, #20]	; (80001c0 <__do_global_dtors_aux+0x18>)
 80001ac:	7823      	ldrb	r3, [r4, #0]
 80001ae:	b933      	cbnz	r3, 80001be <__do_global_dtors_aux+0x16>
 80001b0:	4b04      	ldr	r3, [pc, #16]	; (80001c4 <__do_global_dtors_aux+0x1c>)
 80001b2:	b113      	cbz	r3, 80001ba <__do_global_dtors_aux+0x12>
 80001b4:	4804      	ldr	r0, [pc, #16]	; (80001c8 <__do_global_dtors_aux+0x20>)
 80001b6:	f3af 8000 	nop.w
 80001ba:	2301      	movs	r3, #1
 80001bc:	7023      	strb	r3, [r4, #0]
 80001be:	bd10      	pop	{r4, pc}
 80001c0:	20000000 	.word	0x20000000
 80001c4:	00000000 	.word	0x00000000
 80001c8:	08000700 	.word	0x08000700

080001cc <frame_dummy>:
 80001cc:	b508      	push	{r3, lr}
 80001ce:	4b03      	ldr	r3, [pc, #12]	; (80001dc <frame_dummy+0x10>)
 80001d0:	b11b      	cbz	r3, 80001da <frame_dummy+0xe>
 80001d2:	4903      	ldr	r1, [pc, #12]	; (80001e0 <frame_dummy+0x14>)
 80001d4:	4803      	ldr	r0, [pc, #12]	; (80001e4 <frame_dummy+0x18>)
 80001d6:	f3af 8000 	nop.w
 80001da:	bd08      	pop	{r3, pc}
 80001dc:	00000000 	.word	0x00000000
 80001e0:	20000004 	.word	0x20000004
 80001e4:	08000700 	.word	0x08000700

080001e8 <delay>:
#include "STM32f407xx.h"
#define HIGH 1
#define BTN_PRESSED HIGH

void delay(void)
{
 80001e8:	b480      	push	{r7}
 80001ea:	b083      	sub	sp, #12
 80001ec:	af00      	add	r7, sp, #0
	for (uint32_t i=0; i <500000 ; i++)
 80001ee:	2300      	movs	r3, #0
 80001f0:	607b      	str	r3, [r7, #4]
 80001f2:	e002      	b.n	80001fa <delay+0x12>
 80001f4:	687b      	ldr	r3, [r7, #4]
 80001f6:	3301      	adds	r3, #1
 80001f8:	607b      	str	r3, [r7, #4]
 80001fa:	687b      	ldr	r3, [r7, #4]
 80001fc:	4a04      	ldr	r2, [pc, #16]	; (8000210 <delay+0x28>)
 80001fe:	4293      	cmp	r3, r2
 8000200:	d9f8      	bls.n	80001f4 <delay+0xc>
	{

	}
}
 8000202:	bf00      	nop
 8000204:	370c      	adds	r7, #12
 8000206:	46bd      	mov	sp, r7
 8000208:	f85d 7b04 	ldr.w	r7, [sp], #4
 800020c:	4770      	bx	lr
 800020e:	bf00      	nop
 8000210:	0007a11f 	.word	0x0007a11f

08000214 <main>:
int main(void)
{
 8000214:	b580      	push	{r7, lr}
 8000216:	b086      	sub	sp, #24
 8000218:	af00      	add	r7, sp, #0

	GPIO_Handle_t GpioLed,GpioBtn;

	GpioLed.pGPIOx = GPIOD;
 800021a:	4b1a      	ldr	r3, [pc, #104]	; (8000284 <main+0x70>)
 800021c:	60fb      	str	r3, [r7, #12]
	GpioLed.GPIO_PinConfig.GPIO_PinNumber = GPIO_PIN_NO_12;
 800021e:	230c      	movs	r3, #12
 8000220:	743b      	strb	r3, [r7, #16]
	GpioLed.GPIO_PinConfig.GPIO_PinMode = GPIO_MODE_OUT;
 8000222:	2301      	movs	r3, #1
 8000224:	747b      	strb	r3, [r7, #17]
	GpioLed.GPIO_PinConfig.GPIO_PinSpeed = GPIO_OP_MED_SPEED;
 8000226:	2301      	movs	r3, #1
 8000228:	74bb      	strb	r3, [r7, #18]
	GpioLed.GPIO_PinConfig.GPIO_PinOPType = GPIO_OP_TYPE_PP;
 800022a:	2300      	movs	r3, #0
 800022c:	753b      	strb	r3, [r7, #20]
	GpioLed.GPIO_PinConfig.GPIO_PinPuPdControl = GPIO_NO_PU_PD;
 800022e:	2300      	movs	r3, #0
 8000230:	74fb      	strb	r3, [r7, #19]


	GPIO_PeriClockControl(GPIOD, ENABLE);
 8000232:	2101      	movs	r1, #1
 8000234:	4813      	ldr	r0, [pc, #76]	; (8000284 <main+0x70>)
 8000236:	f000 f853 	bl	80002e0 <GPIO_PeriClockControl>
	GPIO_init(&GpioLed);
 800023a:	f107 030c 	add.w	r3, r7, #12
 800023e:	4618      	mov	r0, r3
 8000240:	f000 f936 	bl	80004b0 <GPIO_init>

// Configuration for button
	GpioBtn.pGPIOx = GPIOA;
 8000244:	4b10      	ldr	r3, [pc, #64]	; (8000288 <main+0x74>)
 8000246:	603b      	str	r3, [r7, #0]
	GpioBtn.GPIO_PinConfig.GPIO_PinNumber = GPIO_PIN_NO_1;
 8000248:	2301      	movs	r3, #1
 800024a:	713b      	strb	r3, [r7, #4]
	GpioBtn.GPIO_PinConfig.GPIO_PinMode = GPIO_MODE_IN;
 800024c:	2300      	movs	r3, #0
 800024e:	717b      	strb	r3, [r7, #5]
	GpioBtn.GPIO_PinConfig.GPIO_PinSpeed = GPIO_OP_MED_SPEED;
 8000250:	2301      	movs	r3, #1
 8000252:	71bb      	strb	r3, [r7, #6]
	GpioBtn.GPIO_PinConfig.GPIO_PinPuPdControl = GPIO_NO_PU_PD;
 8000254:	2300      	movs	r3, #0
 8000256:	71fb      	strb	r3, [r7, #7]


	GPIO_PeriClockControl(GPIOA, ENABLE);
 8000258:	2101      	movs	r1, #1
 800025a:	480b      	ldr	r0, [pc, #44]	; (8000288 <main+0x74>)
 800025c:	f000 f840 	bl	80002e0 <GPIO_PeriClockControl>
	GPIO_init(&GpioBtn);
 8000260:	463b      	mov	r3, r7
 8000262:	4618      	mov	r0, r3
 8000264:	f000 f924 	bl	80004b0 <GPIO_init>


	while (1)
	{
		if (GPIO_ReadFromInputPin(GPIOA, GPIO_PIN_NO_0) == BTN_PRESSED){
 8000268:	2100      	movs	r1, #0
 800026a:	4807      	ldr	r0, [pc, #28]	; (8000288 <main+0x74>)
 800026c:	f000 f9f9 	bl	8000662 <GPIO_ReadFromInputPin>
 8000270:	4603      	mov	r3, r0
 8000272:	2b01      	cmp	r3, #1
 8000274:	d1f8      	bne.n	8000268 <main+0x54>
			delay();
 8000276:	f7ff ffb7 	bl	80001e8 <delay>
			GPIO_ToggleOutputPin(GPIOD, GPIO_PIN_NO_12);
 800027a:	210c      	movs	r1, #12
 800027c:	4801      	ldr	r0, [pc, #4]	; (8000284 <main+0x70>)
 800027e:	f000 fa06 	bl	800068e <GPIO_ToggleOutputPin>
		if (GPIO_ReadFromInputPin(GPIOA, GPIO_PIN_NO_0) == BTN_PRESSED){
 8000282:	e7f1      	b.n	8000268 <main+0x54>
 8000284:	40020c00 	.word	0x40020c00
 8000288:	40020000 	.word	0x40020000

0800028c <Reset_Handler>:

  .section .text.Reset_Handler
  .weak Reset_Handler
  .type Reset_Handler, %function
Reset_Handler:
  ldr   r0, =_estack
 800028c:	480d      	ldr	r0, [pc, #52]	; (80002c4 <LoopForever+0x2>)
  mov   sp, r0          /* set stack pointer */
 800028e:	4685      	mov	sp, r0
/* Call the clock system intitialization function.*/
  bl  SystemInit
 8000290:	f3af 8000 	nop.w

/* Copy the data segment initializers from flash to SRAM */
  ldr r0, =_sdata
 8000294:	480c      	ldr	r0, [pc, #48]	; (80002c8 <LoopForever+0x6>)
  ldr r1, =_edata
 8000296:	490d      	ldr	r1, [pc, #52]	; (80002cc <LoopForever+0xa>)
  ldr r2, =_sidata
 8000298:	4a0d      	ldr	r2, [pc, #52]	; (80002d0 <LoopForever+0xe>)
  movs r3, #0
 800029a:	2300      	movs	r3, #0
  b LoopCopyDataInit
 800029c:	e002      	b.n	80002a4 <LoopCopyDataInit>

0800029e <CopyDataInit>:

CopyDataInit:
  ldr r4, [r2, r3]
 800029e:	58d4      	ldr	r4, [r2, r3]
  str r4, [r0, r3]
 80002a0:	50c4      	str	r4, [r0, r3]
  adds r3, r3, #4
 80002a2:	3304      	adds	r3, #4

080002a4 <LoopCopyDataInit>:

LoopCopyDataInit:
  adds r4, r0, r3
 80002a4:	18c4      	adds	r4, r0, r3
  cmp r4, r1
 80002a6:	428c      	cmp	r4, r1
  bcc CopyDataInit
 80002a8:	d3f9      	bcc.n	800029e <CopyDataInit>

/* Zero fill the bss segment. */
  ldr r2, =_sbss
 80002aa:	4a0a      	ldr	r2, [pc, #40]	; (80002d4 <LoopForever+0x12>)
  ldr r4, =_ebss
 80002ac:	4c0a      	ldr	r4, [pc, #40]	; (80002d8 <LoopForever+0x16>)
  movs r3, #0
 80002ae:	2300      	movs	r3, #0
  b LoopFillZerobss
 80002b0:	e001      	b.n	80002b6 <LoopFillZerobss>

080002b2 <FillZerobss>:

FillZerobss:
  str  r3, [r2]
 80002b2:	6013      	str	r3, [r2, #0]
  adds r2, r2, #4
 80002b4:	3204      	adds	r2, #4

080002b6 <LoopFillZerobss>:

LoopFillZerobss:
  cmp r2, r4
 80002b6:	42a2      	cmp	r2, r4
  bcc FillZerobss
 80002b8:	d3fb      	bcc.n	80002b2 <FillZerobss>

/* Call static constructors */
  bl __libc_init_array
 80002ba:	f000 f9fd 	bl	80006b8 <__libc_init_array>
/* Call the application's entry point.*/
  bl main
 80002be:	f7ff ffa9 	bl	8000214 <main>

080002c2 <LoopForever>:

LoopForever:
    b LoopForever
 80002c2:	e7fe      	b.n	80002c2 <LoopForever>
  ldr   r0, =_estack
 80002c4:	20020000 	.word	0x20020000
  ldr r0, =_sdata
 80002c8:	20000000 	.word	0x20000000
  ldr r1, =_edata
 80002cc:	20000000 	.word	0x20000000
  ldr r2, =_sidata
 80002d0:	08000720 	.word	0x08000720
  ldr r2, =_sbss
 80002d4:	20000000 	.word	0x20000000
  ldr r4, =_ebss
 80002d8:	2000001c 	.word	0x2000001c

080002dc <ADC_IRQHandler>:
 * @retval : None
*/
  .section .text.Default_Handler,"ax",%progbits
Default_Handler:
Infinite_Loop:
  b Infinite_Loop
 80002dc:	e7fe      	b.n	80002dc <ADC_IRQHandler>
	...

080002e0 <GPIO_PeriClockControl>:
 * @return  - none
 *
 * @Note - none
 */
void GPIO_PeriClockControl(GPIO_RegDef_t *pGPIOx, uint8_t ENorDI)
{
 80002e0:	b480      	push	{r7}
 80002e2:	b083      	sub	sp, #12
 80002e4:	af00      	add	r7, sp, #0
 80002e6:	6078      	str	r0, [r7, #4]
 80002e8:	460b      	mov	r3, r1
 80002ea:	70fb      	strb	r3, [r7, #3]
	if(ENorDI == ENABLE)
 80002ec:	78fb      	ldrb	r3, [r7, #3]
 80002ee:	2b01      	cmp	r3, #1
 80002f0:	d162      	bne.n	80003b8 <GPIO_PeriClockControl+0xd8>
	{
		if (pGPIOx == GPIOA) {
 80002f2:	687b      	ldr	r3, [r7, #4]
 80002f4:	4a64      	ldr	r2, [pc, #400]	; (8000488 <GPIO_PeriClockControl+0x1a8>)
 80002f6:	4293      	cmp	r3, r2
 80002f8:	d106      	bne.n	8000308 <GPIO_PeriClockControl+0x28>
			GPIOA_PCLK_EN();
 80002fa:	4b64      	ldr	r3, [pc, #400]	; (800048c <GPIO_PeriClockControl+0x1ac>)
 80002fc:	6b1b      	ldr	r3, [r3, #48]	; 0x30
 80002fe:	4a63      	ldr	r2, [pc, #396]	; (800048c <GPIO_PeriClockControl+0x1ac>)
 8000300:	f043 0301 	orr.w	r3, r3, #1
 8000304:	6313      	str	r3, [r2, #48]	; 0x30
			GPIOI_PCLK_DI();
		}
	}


}
 8000306:	e0b9      	b.n	800047c <GPIO_PeriClockControl+0x19c>
		} else if (pGPIOx == GPIOB) {
 8000308:	687b      	ldr	r3, [r7, #4]
 800030a:	4a61      	ldr	r2, [pc, #388]	; (8000490 <GPIO_PeriClockControl+0x1b0>)
 800030c:	4293      	cmp	r3, r2
 800030e:	d106      	bne.n	800031e <GPIO_PeriClockControl+0x3e>
			GPIOB_PCLK_EN();
 8000310:	4b5e      	ldr	r3, [pc, #376]	; (800048c <GPIO_PeriClockControl+0x1ac>)
 8000312:	6b1b      	ldr	r3, [r3, #48]	; 0x30
 8000314:	4a5d      	ldr	r2, [pc, #372]	; (800048c <GPIO_PeriClockControl+0x1ac>)
 8000316:	f043 0302 	orr.w	r3, r3, #2
 800031a:	6313      	str	r3, [r2, #48]	; 0x30
}
 800031c:	e0ae      	b.n	800047c <GPIO_PeriClockControl+0x19c>
		} else if (pGPIOx == GPIOC) {
 800031e:	687b      	ldr	r3, [r7, #4]
 8000320:	4a5c      	ldr	r2, [pc, #368]	; (8000494 <GPIO_PeriClockControl+0x1b4>)
 8000322:	4293      	cmp	r3, r2
 8000324:	d106      	bne.n	8000334 <GPIO_PeriClockControl+0x54>
			GPIOC_PCLK_EN();
 8000326:	4b59      	ldr	r3, [pc, #356]	; (800048c <GPIO_PeriClockControl+0x1ac>)
 8000328:	6b1b      	ldr	r3, [r3, #48]	; 0x30
 800032a:	4a58      	ldr	r2, [pc, #352]	; (800048c <GPIO_PeriClockControl+0x1ac>)
 800032c:	f043 0304 	orr.w	r3, r3, #4
 8000330:	6313      	str	r3, [r2, #48]	; 0x30
}
 8000332:	e0a3      	b.n	800047c <GPIO_PeriClockControl+0x19c>
		} else if (pGPIOx == GPIOD) {
 8000334:	687b      	ldr	r3, [r7, #4]
 8000336:	4a58      	ldr	r2, [pc, #352]	; (8000498 <GPIO_PeriClockControl+0x1b8>)
 8000338:	4293      	cmp	r3, r2
 800033a:	d106      	bne.n	800034a <GPIO_PeriClockControl+0x6a>
			GPIOD_PCLK_EN();
 800033c:	4b53      	ldr	r3, [pc, #332]	; (800048c <GPIO_PeriClockControl+0x1ac>)
 800033e:	6b1b      	ldr	r3, [r3, #48]	; 0x30
 8000340:	4a52      	ldr	r2, [pc, #328]	; (800048c <GPIO_PeriClockControl+0x1ac>)
 8000342:	f043 0308 	orr.w	r3, r3, #8
 8000346:	6313      	str	r3, [r2, #48]	; 0x30
}
 8000348:	e098      	b.n	800047c <GPIO_PeriClockControl+0x19c>
		} else if (pGPIOx == GPIOE) {
 800034a:	687b      	ldr	r3, [r7, #4]
 800034c:	4a53      	ldr	r2, [pc, #332]	; (800049c <GPIO_PeriClockControl+0x1bc>)
 800034e:	4293      	cmp	r3, r2
 8000350:	d106      	bne.n	8000360 <GPIO_PeriClockControl+0x80>
			GPIOE_PCLK_EN();
 8000352:	4b4e      	ldr	r3, [pc, #312]	; (800048c <GPIO_PeriClockControl+0x1ac>)
 8000354:	6b1b      	ldr	r3, [r3, #48]	; 0x30
 8000356:	4a4d      	ldr	r2, [pc, #308]	; (800048c <GPIO_PeriClockControl+0x1ac>)
 8000358:	f043 0310 	orr.w	r3, r3, #16
 800035c:	6313      	str	r3, [r2, #48]	; 0x30
}
 800035e:	e08d      	b.n	800047c <GPIO_PeriClockControl+0x19c>
		} else if (pGPIOx == GPIOF) {
 8000360:	687b      	ldr	r3, [r7, #4]
 8000362:	4a4f      	ldr	r2, [pc, #316]	; (80004a0 <GPIO_PeriClockControl+0x1c0>)
 8000364:	4293      	cmp	r3, r2
 8000366:	d106      	bne.n	8000376 <GPIO_PeriClockControl+0x96>
			GPIOF_PCLK_EN();
 8000368:	4b48      	ldr	r3, [pc, #288]	; (800048c <GPIO_PeriClockControl+0x1ac>)
 800036a:	6b1b      	ldr	r3, [r3, #48]	; 0x30
 800036c:	4a47      	ldr	r2, [pc, #284]	; (800048c <GPIO_PeriClockControl+0x1ac>)
 800036e:	f043 0320 	orr.w	r3, r3, #32
 8000372:	6313      	str	r3, [r2, #48]	; 0x30
}
 8000374:	e082      	b.n	800047c <GPIO_PeriClockControl+0x19c>
		} else if (pGPIOx == GPIOG) {
 8000376:	687b      	ldr	r3, [r7, #4]
 8000378:	4a4a      	ldr	r2, [pc, #296]	; (80004a4 <GPIO_PeriClockControl+0x1c4>)
 800037a:	4293      	cmp	r3, r2
 800037c:	d106      	bne.n	800038c <GPIO_PeriClockControl+0xac>
			GPIOG_PCLK_EN();
 800037e:	4b43      	ldr	r3, [pc, #268]	; (800048c <GPIO_PeriClockControl+0x1ac>)
 8000380:	6b1b      	ldr	r3, [r3, #48]	; 0x30
 8000382:	4a42      	ldr	r2, [pc, #264]	; (800048c <GPIO_PeriClockControl+0x1ac>)
 8000384:	f043 0340 	orr.w	r3, r3, #64	; 0x40
 8000388:	6313      	str	r3, [r2, #48]	; 0x30
}
 800038a:	e077      	b.n	800047c <GPIO_PeriClockControl+0x19c>
		} else if (pGPIOx == GPIOH) {
 800038c:	687b      	ldr	r3, [r7, #4]
 800038e:	4a46      	ldr	r2, [pc, #280]	; (80004a8 <GPIO_PeriClockControl+0x1c8>)
 8000390:	4293      	cmp	r3, r2
 8000392:	d106      	bne.n	80003a2 <GPIO_PeriClockControl+0xc2>
			GPIOH_PCLK_EN();
 8000394:	4b3d      	ldr	r3, [pc, #244]	; (800048c <GPIO_PeriClockControl+0x1ac>)
 8000396:	6b1b      	ldr	r3, [r3, #48]	; 0x30
 8000398:	4a3c      	ldr	r2, [pc, #240]	; (800048c <GPIO_PeriClockControl+0x1ac>)
 800039a:	f043 0380 	orr.w	r3, r3, #128	; 0x80
 800039e:	6313      	str	r3, [r2, #48]	; 0x30
}
 80003a0:	e06c      	b.n	800047c <GPIO_PeriClockControl+0x19c>
		} else if (pGPIOx == GPIOI) {
 80003a2:	687b      	ldr	r3, [r7, #4]
 80003a4:	4a41      	ldr	r2, [pc, #260]	; (80004ac <GPIO_PeriClockControl+0x1cc>)
 80003a6:	4293      	cmp	r3, r2
 80003a8:	d168      	bne.n	800047c <GPIO_PeriClockControl+0x19c>
			GPIOI_PCLK_EN();
 80003aa:	4b38      	ldr	r3, [pc, #224]	; (800048c <GPIO_PeriClockControl+0x1ac>)
 80003ac:	6b1b      	ldr	r3, [r3, #48]	; 0x30
 80003ae:	4a37      	ldr	r2, [pc, #220]	; (800048c <GPIO_PeriClockControl+0x1ac>)
 80003b0:	f443 7380 	orr.w	r3, r3, #256	; 0x100
 80003b4:	6313      	str	r3, [r2, #48]	; 0x30
}
 80003b6:	e061      	b.n	800047c <GPIO_PeriClockControl+0x19c>
		if (pGPIOx == GPIOA) {
 80003b8:	687b      	ldr	r3, [r7, #4]
 80003ba:	4a33      	ldr	r2, [pc, #204]	; (8000488 <GPIO_PeriClockControl+0x1a8>)
 80003bc:	4293      	cmp	r3, r2
 80003be:	d106      	bne.n	80003ce <GPIO_PeriClockControl+0xee>
			GPIOA_PCLK_DI();
 80003c0:	4b32      	ldr	r3, [pc, #200]	; (800048c <GPIO_PeriClockControl+0x1ac>)
 80003c2:	6b1b      	ldr	r3, [r3, #48]	; 0x30
 80003c4:	4a31      	ldr	r2, [pc, #196]	; (800048c <GPIO_PeriClockControl+0x1ac>)
 80003c6:	f023 0301 	bic.w	r3, r3, #1
 80003ca:	6313      	str	r3, [r2, #48]	; 0x30
}
 80003cc:	e056      	b.n	800047c <GPIO_PeriClockControl+0x19c>
		} else if (pGPIOx == GPIOB) {
 80003ce:	687b      	ldr	r3, [r7, #4]
 80003d0:	4a2f      	ldr	r2, [pc, #188]	; (8000490 <GPIO_PeriClockControl+0x1b0>)
 80003d2:	4293      	cmp	r3, r2
 80003d4:	d106      	bne.n	80003e4 <GPIO_PeriClockControl+0x104>
			GPIOB_PCLK_DI();
 80003d6:	4b2d      	ldr	r3, [pc, #180]	; (800048c <GPIO_PeriClockControl+0x1ac>)
 80003d8:	6b1b      	ldr	r3, [r3, #48]	; 0x30
 80003da:	4a2c      	ldr	r2, [pc, #176]	; (800048c <GPIO_PeriClockControl+0x1ac>)
 80003dc:	f023 0302 	bic.w	r3, r3, #2
 80003e0:	6313      	str	r3, [r2, #48]	; 0x30
}
 80003e2:	e04b      	b.n	800047c <GPIO_PeriClockControl+0x19c>
		} else if (pGPIOx == GPIOC) {
 80003e4:	687b      	ldr	r3, [r7, #4]
 80003e6:	4a2b      	ldr	r2, [pc, #172]	; (8000494 <GPIO_PeriClockControl+0x1b4>)
 80003e8:	4293      	cmp	r3, r2
 80003ea:	d106      	bne.n	80003fa <GPIO_PeriClockControl+0x11a>
			GPIOC_PCLK_DI();
 80003ec:	4b27      	ldr	r3, [pc, #156]	; (800048c <GPIO_PeriClockControl+0x1ac>)
 80003ee:	6b1b      	ldr	r3, [r3, #48]	; 0x30
 80003f0:	4a26      	ldr	r2, [pc, #152]	; (800048c <GPIO_PeriClockControl+0x1ac>)
 80003f2:	f023 0304 	bic.w	r3, r3, #4
 80003f6:	6313      	str	r3, [r2, #48]	; 0x30
}
 80003f8:	e040      	b.n	800047c <GPIO_PeriClockControl+0x19c>
		} else if (pGPIOx == GPIOD) {
 80003fa:	687b      	ldr	r3, [r7, #4]
 80003fc:	4a26      	ldr	r2, [pc, #152]	; (8000498 <GPIO_PeriClockControl+0x1b8>)
 80003fe:	4293      	cmp	r3, r2
 8000400:	d106      	bne.n	8000410 <GPIO_PeriClockControl+0x130>
			GPIOD_PCLK_DI();
 8000402:	4b22      	ldr	r3, [pc, #136]	; (800048c <GPIO_PeriClockControl+0x1ac>)
 8000404:	6b1b      	ldr	r3, [r3, #48]	; 0x30
 8000406:	4a21      	ldr	r2, [pc, #132]	; (800048c <GPIO_PeriClockControl+0x1ac>)
 8000408:	f023 0308 	bic.w	r3, r3, #8
 800040c:	6313      	str	r3, [r2, #48]	; 0x30
}
 800040e:	e035      	b.n	800047c <GPIO_PeriClockControl+0x19c>
		} else if (pGPIOx == GPIOE) {
 8000410:	687b      	ldr	r3, [r7, #4]
 8000412:	4a22      	ldr	r2, [pc, #136]	; (800049c <GPIO_PeriClockControl+0x1bc>)
 8000414:	4293      	cmp	r3, r2
 8000416:	d106      	bne.n	8000426 <GPIO_PeriClockControl+0x146>
			GPIOE_PCLK_DI();
 8000418:	4b1c      	ldr	r3, [pc, #112]	; (800048c <GPIO_PeriClockControl+0x1ac>)
 800041a:	6b1b      	ldr	r3, [r3, #48]	; 0x30
 800041c:	4a1b      	ldr	r2, [pc, #108]	; (800048c <GPIO_PeriClockControl+0x1ac>)
 800041e:	f023 0310 	bic.w	r3, r3, #16
 8000422:	6313      	str	r3, [r2, #48]	; 0x30
}
 8000424:	e02a      	b.n	800047c <GPIO_PeriClockControl+0x19c>
		} else if (pGPIOx == GPIOF) {
 8000426:	687b      	ldr	r3, [r7, #4]
 8000428:	4a1d      	ldr	r2, [pc, #116]	; (80004a0 <GPIO_PeriClockControl+0x1c0>)
 800042a:	4293      	cmp	r3, r2
 800042c:	d106      	bne.n	800043c <GPIO_PeriClockControl+0x15c>
			GPIOF_PCLK_DI();
 800042e:	4b17      	ldr	r3, [pc, #92]	; (800048c <GPIO_PeriClockControl+0x1ac>)
 8000430:	6b1b      	ldr	r3, [r3, #48]	; 0x30
 8000432:	4a16      	ldr	r2, [pc, #88]	; (800048c <GPIO_PeriClockControl+0x1ac>)
 8000434:	f023 0320 	bic.w	r3, r3, #32
 8000438:	6313      	str	r3, [r2, #48]	; 0x30
}
 800043a:	e01f      	b.n	800047c <GPIO_PeriClockControl+0x19c>
		} else if (pGPIOx == GPIOG) {
 800043c:	687b      	ldr	r3, [r7, #4]
 800043e:	4a19      	ldr	r2, [pc, #100]	; (80004a4 <GPIO_PeriClockControl+0x1c4>)
 8000440:	4293      	cmp	r3, r2
 8000442:	d106      	bne.n	8000452 <GPIO_PeriClockControl+0x172>
			GPIOG_PCLK_DI();
 8000444:	4b11      	ldr	r3, [pc, #68]	; (800048c <GPIO_PeriClockControl+0x1ac>)
 8000446:	6b1b      	ldr	r3, [r3, #48]	; 0x30
 8000448:	4a10      	ldr	r2, [pc, #64]	; (800048c <GPIO_PeriClockControl+0x1ac>)
 800044a:	f023 0340 	bic.w	r3, r3, #64	; 0x40
 800044e:	6313      	str	r3, [r2, #48]	; 0x30
}
 8000450:	e014      	b.n	800047c <GPIO_PeriClockControl+0x19c>
		} else if (pGPIOx == GPIOH) {
 8000452:	687b      	ldr	r3, [r7, #4]
 8000454:	4a14      	ldr	r2, [pc, #80]	; (80004a8 <GPIO_PeriClockControl+0x1c8>)
 8000456:	4293      	cmp	r3, r2
 8000458:	d106      	bne.n	8000468 <GPIO_PeriClockControl+0x188>
			GPIOH_PCLK_DI();
 800045a:	4b0c      	ldr	r3, [pc, #48]	; (800048c <GPIO_PeriClockControl+0x1ac>)
 800045c:	6b1b      	ldr	r3, [r3, #48]	; 0x30
 800045e:	4a0b      	ldr	r2, [pc, #44]	; (800048c <GPIO_PeriClockControl+0x1ac>)
 8000460:	f023 0380 	bic.w	r3, r3, #128	; 0x80
 8000464:	6313      	str	r3, [r2, #48]	; 0x30
}
 8000466:	e009      	b.n	800047c <GPIO_PeriClockControl+0x19c>
		} else if (pGPIOx == GPIOI) {
 8000468:	687b      	ldr	r3, [r7, #4]
 800046a:	4a10      	ldr	r2, [pc, #64]	; (80004ac <GPIO_PeriClockControl+0x1cc>)
 800046c:	4293      	cmp	r3, r2
 800046e:	d105      	bne.n	800047c <GPIO_PeriClockControl+0x19c>
			GPIOI_PCLK_DI();
 8000470:	4b06      	ldr	r3, [pc, #24]	; (800048c <GPIO_PeriClockControl+0x1ac>)
 8000472:	6b1b      	ldr	r3, [r3, #48]	; 0x30
 8000474:	4a05      	ldr	r2, [pc, #20]	; (800048c <GPIO_PeriClockControl+0x1ac>)
 8000476:	f423 7380 	bic.w	r3, r3, #256	; 0x100
 800047a:	6313      	str	r3, [r2, #48]	; 0x30
}
 800047c:	bf00      	nop
 800047e:	370c      	adds	r7, #12
 8000480:	46bd      	mov	sp, r7
 8000482:	f85d 7b04 	ldr.w	r7, [sp], #4
 8000486:	4770      	bx	lr
 8000488:	40020000 	.word	0x40020000
 800048c:	40023800 	.word	0x40023800
 8000490:	40020400 	.word	0x40020400
 8000494:	40020800 	.word	0x40020800
 8000498:	40020c00 	.word	0x40020c00
 800049c:	40021000 	.word	0x40021000
 80004a0:	40021400 	.word	0x40021400
 80004a4:	40021800 	.word	0x40021800
 80004a8:	40021c00 	.word	0x40021c00
 80004ac:	40022000 	.word	0x40022000

080004b0 <GPIO_init>:
 *
 * @Note - none
 */

void GPIO_init(GPIO_Handle_t *pGPIOHandle)
{
 80004b0:	b480      	push	{r7}
 80004b2:	b087      	sub	sp, #28
 80004b4:	af00      	add	r7, sp, #0
 80004b6:	6078      	str	r0, [r7, #4]
	uint32_t temp= 0; // Temp Register
 80004b8:	2300      	movs	r3, #0
 80004ba:	617b      	str	r3, [r7, #20]
	uint32_t temp1 = 0;
 80004bc:	2300      	movs	r3, #0
 80004be:	613b      	str	r3, [r7, #16]
	uint32_t temp2 = 0;
 80004c0:	2300      	movs	r3, #0
 80004c2:	60fb      	str	r3, [r7, #12]
	// 1) configure the GPIO PinMode - 00 = Input, 01 = GPIO, 10 = Alt Function, 11 = Analog Mode

	if(pGPIOHandle->GPIO_PinConfig.GPIO_PinMode <= GPIO_MODE_ANALOG)
 80004c4:	687b      	ldr	r3, [r7, #4]
 80004c6:	795b      	ldrb	r3, [r3, #5]
 80004c8:	2b03      	cmp	r3, #3
 80004ca:	d821      	bhi.n	8000510 <GPIO_init+0x60>
		{
			// the non Interrupt mode
		temp = (pGPIOHandle->GPIO_PinConfig.GPIO_PinMode  << (2* pGPIOHandle->GPIO_PinConfig.GPIO_PinNumber));
 80004cc:	687b      	ldr	r3, [r7, #4]
 80004ce:	795b      	ldrb	r3, [r3, #5]
 80004d0:	461a      	mov	r2, r3
 80004d2:	687b      	ldr	r3, [r7, #4]
 80004d4:	791b      	ldrb	r3, [r3, #4]
 80004d6:	005b      	lsls	r3, r3, #1
 80004d8:	fa02 f303 	lsl.w	r3, r2, r3
 80004dc:	617b      	str	r3, [r7, #20]

		pGPIOHandle->pGPIOx->MODER &= ~(0x3 <<(2* pGPIOHandle->GPIO_PinConfig.GPIO_PinNumber));
 80004de:	687b      	ldr	r3, [r7, #4]
 80004e0:	681b      	ldr	r3, [r3, #0]
 80004e2:	681a      	ldr	r2, [r3, #0]
 80004e4:	687b      	ldr	r3, [r7, #4]
 80004e6:	791b      	ldrb	r3, [r3, #4]
 80004e8:	005b      	lsls	r3, r3, #1
 80004ea:	2103      	movs	r1, #3
 80004ec:	fa01 f303 	lsl.w	r3, r1, r3
 80004f0:	43db      	mvns	r3, r3
 80004f2:	4619      	mov	r1, r3
 80004f4:	687b      	ldr	r3, [r7, #4]
 80004f6:	681b      	ldr	r3, [r3, #0]
 80004f8:	400a      	ands	r2, r1
 80004fa:	601a      	str	r2, [r3, #0]
		pGPIOHandle->pGPIOx->MODER |= temp;
 80004fc:	687b      	ldr	r3, [r7, #4]
 80004fe:	681b      	ldr	r3, [r3, #0]
 8000500:	6819      	ldr	r1, [r3, #0]
 8000502:	687b      	ldr	r3, [r7, #4]
 8000504:	681b      	ldr	r3, [r3, #0]
 8000506:	697a      	ldr	r2, [r7, #20]
 8000508:	430a      	orrs	r2, r1
 800050a:	601a      	str	r2, [r3, #0]
		temp =0;
 800050c:	2300      	movs	r3, #0
 800050e:	617b      	str	r3, [r7, #20]
		}else
		{
			// Interrupt Mode
		}

	temp=0;
 8000510:	2300      	movs	r3, #0
 8000512:	617b      	str	r3, [r7, #20]

	// 2) configure the GPIO Pin Speed
	temp = (pGPIOHandle->GPIO_PinConfig.GPIO_PinSpeed  << (2* pGPIOHandle->GPIO_PinConfig.GPIO_PinNumber));
 8000514:	687b      	ldr	r3, [r7, #4]
 8000516:	799b      	ldrb	r3, [r3, #6]
 8000518:	461a      	mov	r2, r3
 800051a:	687b      	ldr	r3, [r7, #4]
 800051c:	791b      	ldrb	r3, [r3, #4]
 800051e:	005b      	lsls	r3, r3, #1
 8000520:	fa02 f303 	lsl.w	r3, r2, r3
 8000524:	617b      	str	r3, [r7, #20]
	pGPIOHandle->pGPIOx->OSPEEDR &= ~(0x3 <<(2* pGPIOHandle->GPIO_PinConfig.GPIO_PinNumber));
 8000526:	687b      	ldr	r3, [r7, #4]
 8000528:	681b      	ldr	r3, [r3, #0]
 800052a:	689a      	ldr	r2, [r3, #8]
 800052c:	687b      	ldr	r3, [r7, #4]
 800052e:	791b      	ldrb	r3, [r3, #4]
 8000530:	005b      	lsls	r3, r3, #1
 8000532:	2103      	movs	r1, #3
 8000534:	fa01 f303 	lsl.w	r3, r1, r3
 8000538:	43db      	mvns	r3, r3
 800053a:	4619      	mov	r1, r3
 800053c:	687b      	ldr	r3, [r7, #4]
 800053e:	681b      	ldr	r3, [r3, #0]
 8000540:	400a      	ands	r2, r1
 8000542:	609a      	str	r2, [r3, #8]
	pGPIOHandle->pGPIOx->OSPEEDR |= temp;
 8000544:	687b      	ldr	r3, [r7, #4]
 8000546:	681b      	ldr	r3, [r3, #0]
 8000548:	6899      	ldr	r1, [r3, #8]
 800054a:	687b      	ldr	r3, [r7, #4]
 800054c:	681b      	ldr	r3, [r3, #0]
 800054e:	697a      	ldr	r2, [r7, #20]
 8000550:	430a      	orrs	r2, r1
 8000552:	609a      	str	r2, [r3, #8]
	temp = 0;
 8000554:	2300      	movs	r3, #0
 8000556:	617b      	str	r3, [r7, #20]

	// 3) Configure the GPIO Pin Pull up Pull down Control

	temp = (pGPIOHandle->GPIO_PinConfig.GPIO_PinPuPdControl  << (2* pGPIOHandle->GPIO_PinConfig.GPIO_PinNumber));
 8000558:	687b      	ldr	r3, [r7, #4]
 800055a:	79db      	ldrb	r3, [r3, #7]
 800055c:	461a      	mov	r2, r3
 800055e:	687b      	ldr	r3, [r7, #4]
 8000560:	791b      	ldrb	r3, [r3, #4]
 8000562:	005b      	lsls	r3, r3, #1
 8000564:	fa02 f303 	lsl.w	r3, r2, r3
 8000568:	617b      	str	r3, [r7, #20]
	pGPIOHandle->pGPIOx->PUPDR &= ~(0x3 <<(2* pGPIOHandle->GPIO_PinConfig.GPIO_PinNumber));
 800056a:	687b      	ldr	r3, [r7, #4]
 800056c:	681b      	ldr	r3, [r3, #0]
 800056e:	68da      	ldr	r2, [r3, #12]
 8000570:	687b      	ldr	r3, [r7, #4]
 8000572:	791b      	ldrb	r3, [r3, #4]
 8000574:	005b      	lsls	r3, r3, #1
 8000576:	2103      	movs	r1, #3
 8000578:	fa01 f303 	lsl.w	r3, r1, r3
 800057c:	43db      	mvns	r3, r3
 800057e:	4619      	mov	r1, r3
 8000580:	687b      	ldr	r3, [r7, #4]
 8000582:	681b      	ldr	r3, [r3, #0]
 8000584:	400a      	ands	r2, r1
 8000586:	60da      	str	r2, [r3, #12]
	pGPIOHandle->pGPIOx->PUPDR |= temp;
 8000588:	687b      	ldr	r3, [r7, #4]
 800058a:	681b      	ldr	r3, [r3, #0]
 800058c:	68d9      	ldr	r1, [r3, #12]
 800058e:	687b      	ldr	r3, [r7, #4]
 8000590:	681b      	ldr	r3, [r3, #0]
 8000592:	697a      	ldr	r2, [r7, #20]
 8000594:	430a      	orrs	r2, r1
 8000596:	60da      	str	r2, [r3, #12]
	temp = 0;
 8000598:	2300      	movs	r3, #0
 800059a:	617b      	str	r3, [r7, #20]

	// 4) Configure Output type

	temp = (pGPIOHandle->GPIO_PinConfig.GPIO_PinOPType  << (pGPIOHandle->GPIO_PinConfig.GPIO_PinNumber));
 800059c:	687b      	ldr	r3, [r7, #4]
 800059e:	7a1b      	ldrb	r3, [r3, #8]
 80005a0:	461a      	mov	r2, r3
 80005a2:	687b      	ldr	r3, [r7, #4]
 80005a4:	791b      	ldrb	r3, [r3, #4]
 80005a6:	fa02 f303 	lsl.w	r3, r2, r3
 80005aa:	617b      	str	r3, [r7, #20]
	pGPIOHandle->pGPIOx->OTYPER &= ~(0x1 <<( pGPIOHandle->GPIO_PinConfig.GPIO_PinNumber));
 80005ac:	687b      	ldr	r3, [r7, #4]
 80005ae:	681b      	ldr	r3, [r3, #0]
 80005b0:	685a      	ldr	r2, [r3, #4]
 80005b2:	687b      	ldr	r3, [r7, #4]
 80005b4:	791b      	ldrb	r3, [r3, #4]
 80005b6:	4619      	mov	r1, r3
 80005b8:	2301      	movs	r3, #1
 80005ba:	408b      	lsls	r3, r1
 80005bc:	43db      	mvns	r3, r3
 80005be:	4619      	mov	r1, r3
 80005c0:	687b      	ldr	r3, [r7, #4]
 80005c2:	681b      	ldr	r3, [r3, #0]
 80005c4:	400a      	ands	r2, r1
 80005c6:	605a      	str	r2, [r3, #4]
	pGPIOHandle->pGPIOx->OTYPER |= temp;
 80005c8:	687b      	ldr	r3, [r7, #4]
 80005ca:	681b      	ldr	r3, [r3, #0]
 80005cc:	6859      	ldr	r1, [r3, #4]
 80005ce:	687b      	ldr	r3, [r7, #4]
 80005d0:	681b      	ldr	r3, [r3, #0]
 80005d2:	697a      	ldr	r2, [r7, #20]
 80005d4:	430a      	orrs	r2, r1
 80005d6:	605a      	str	r2, [r3, #4]
	temp = 0;
 80005d8:	2300      	movs	r3, #0
 80005da:	617b      	str	r3, [r7, #20]

	// 5) Configure the Alt Functionality
	if (pGPIOHandle->GPIO_PinConfig.GPIO_PinMode == GPIO_MODE_ALTFN)
 80005dc:	687b      	ldr	r3, [r7, #4]
 80005de:	795b      	ldrb	r3, [r3, #5]
 80005e0:	2b02      	cmp	r3, #2
 80005e2:	d138      	bne.n	8000656 <GPIO_init+0x1a6>
	{
		temp1 = pGPIOHandle->GPIO_PinConfig.GPIO_PinNumber / 8;
 80005e4:	687b      	ldr	r3, [r7, #4]
 80005e6:	791b      	ldrb	r3, [r3, #4]
 80005e8:	08db      	lsrs	r3, r3, #3
 80005ea:	b2db      	uxtb	r3, r3
 80005ec:	613b      	str	r3, [r7, #16]
		temp2 = pGPIOHandle->GPIO_PinConfig.GPIO_PinNumber % 8;
 80005ee:	687b      	ldr	r3, [r7, #4]
 80005f0:	791b      	ldrb	r3, [r3, #4]
 80005f2:	f003 0307 	and.w	r3, r3, #7
 80005f6:	60fb      	str	r3, [r7, #12]

		pGPIOHandle->pGPIOx->AFR[temp1] &= ~(0xF <<(4* temp2));
 80005f8:	687b      	ldr	r3, [r7, #4]
 80005fa:	681b      	ldr	r3, [r3, #0]
 80005fc:	693a      	ldr	r2, [r7, #16]
 80005fe:	3208      	adds	r2, #8
 8000600:	f853 2022 	ldr.w	r2, [r3, r2, lsl #2]
 8000604:	68fb      	ldr	r3, [r7, #12]
 8000606:	009b      	lsls	r3, r3, #2
 8000608:	210f      	movs	r1, #15
 800060a:	fa01 f303 	lsl.w	r3, r1, r3
 800060e:	43db      	mvns	r3, r3
 8000610:	4619      	mov	r1, r3
 8000612:	687b      	ldr	r3, [r7, #4]
 8000614:	681b      	ldr	r3, [r3, #0]
 8000616:	4011      	ands	r1, r2
 8000618:	693a      	ldr	r2, [r7, #16]
 800061a:	3208      	adds	r2, #8
 800061c:	f843 1022 	str.w	r1, [r3, r2, lsl #2]
		pGPIOHandle->pGPIOx->AFR[temp1] |= (pGPIOHandle->GPIO_PinConfig.GPIO_PinAltFunMode  << (4* temp2));
 8000620:	687b      	ldr	r3, [r7, #4]
 8000622:	681b      	ldr	r3, [r3, #0]
 8000624:	693a      	ldr	r2, [r7, #16]
 8000626:	3208      	adds	r2, #8
 8000628:	f853 2022 	ldr.w	r2, [r3, r2, lsl #2]
 800062c:	687b      	ldr	r3, [r7, #4]
 800062e:	7a5b      	ldrb	r3, [r3, #9]
 8000630:	4619      	mov	r1, r3
 8000632:	68fb      	ldr	r3, [r7, #12]
 8000634:	009b      	lsls	r3, r3, #2
 8000636:	fa01 f303 	lsl.w	r3, r1, r3
 800063a:	4619      	mov	r1, r3
 800063c:	687b      	ldr	r3, [r7, #4]
 800063e:	681b      	ldr	r3, [r3, #0]
 8000640:	4311      	orrs	r1, r2
 8000642:	693a      	ldr	r2, [r7, #16]
 8000644:	3208      	adds	r2, #8
 8000646:	f843 1022 	str.w	r1, [r3, r2, lsl #2]
		temp = 0;
 800064a:	2300      	movs	r3, #0
 800064c:	617b      	str	r3, [r7, #20]
		temp1 = 0;
 800064e:	2300      	movs	r3, #0
 8000650:	613b      	str	r3, [r7, #16]
		temp2 = 0;
 8000652:	2300      	movs	r3, #0
 8000654:	60fb      	str	r3, [r7, #12]

	}



}
 8000656:	bf00      	nop
 8000658:	371c      	adds	r7, #28
 800065a:	46bd      	mov	sp, r7
 800065c:	f85d 7b04 	ldr.w	r7, [sp], #4
 8000660:	4770      	bx	lr

08000662 <GPIO_ReadFromInputPin>:

/*
 * Data Read and Data write
 */
uint8_t GPIO_ReadFromInputPin(GPIO_RegDef_t *pGPIOx, uint8_t PinNumber)
{
 8000662:	b480      	push	{r7}
 8000664:	b085      	sub	sp, #20
 8000666:	af00      	add	r7, sp, #0
 8000668:	6078      	str	r0, [r7, #4]
 800066a:	460b      	mov	r3, r1
 800066c:	70fb      	strb	r3, [r7, #3]

	uint8_t value;
	value = (uint8_t)((pGPIOx->IDR>> PinNumber)& 0x00000001);
 800066e:	687b      	ldr	r3, [r7, #4]
 8000670:	691a      	ldr	r2, [r3, #16]
 8000672:	78fb      	ldrb	r3, [r7, #3]
 8000674:	fa22 f303 	lsr.w	r3, r2, r3
 8000678:	b2db      	uxtb	r3, r3
 800067a:	f003 0301 	and.w	r3, r3, #1
 800067e:	73fb      	strb	r3, [r7, #15]

	return value;
 8000680:	7bfb      	ldrb	r3, [r7, #15]

}
 8000682:	4618      	mov	r0, r3
 8000684:	3714      	adds	r7, #20
 8000686:	46bd      	mov	sp, r7
 8000688:	f85d 7b04 	ldr.w	r7, [sp], #4
 800068c:	4770      	bx	lr

0800068e <GPIO_ToggleOutputPin>:
    // Write to GPIO Port
	pGPIOx->ODR = value;
}

void GPIO_ToggleOutputPin(GPIO_RegDef_t *pGPIOx, uint8_t PinNumber)
{
 800068e:	b480      	push	{r7}
 8000690:	b083      	sub	sp, #12
 8000692:	af00      	add	r7, sp, #0
 8000694:	6078      	str	r0, [r7, #4]
 8000696:	460b      	mov	r3, r1
 8000698:	70fb      	strb	r3, [r7, #3]
	pGPIOx->ODR ^= (1 << PinNumber);
 800069a:	687b      	ldr	r3, [r7, #4]
 800069c:	695b      	ldr	r3, [r3, #20]
 800069e:	78fa      	ldrb	r2, [r7, #3]
 80006a0:	2101      	movs	r1, #1
 80006a2:	fa01 f202 	lsl.w	r2, r1, r2
 80006a6:	405a      	eors	r2, r3
 80006a8:	687b      	ldr	r3, [r7, #4]
 80006aa:	615a      	str	r2, [r3, #20]
}
 80006ac:	bf00      	nop
 80006ae:	370c      	adds	r7, #12
 80006b0:	46bd      	mov	sp, r7
 80006b2:	f85d 7b04 	ldr.w	r7, [sp], #4
 80006b6:	4770      	bx	lr

080006b8 <__libc_init_array>:
 80006b8:	b570      	push	{r4, r5, r6, lr}
 80006ba:	4e0d      	ldr	r6, [pc, #52]	; (80006f0 <__libc_init_array+0x38>)
 80006bc:	4c0d      	ldr	r4, [pc, #52]	; (80006f4 <__libc_init_array+0x3c>)
 80006be:	1ba4      	subs	r4, r4, r6
 80006c0:	10a4      	asrs	r4, r4, #2
 80006c2:	2500      	movs	r5, #0
 80006c4:	42a5      	cmp	r5, r4
 80006c6:	d109      	bne.n	80006dc <__libc_init_array+0x24>
 80006c8:	4e0b      	ldr	r6, [pc, #44]	; (80006f8 <__libc_init_array+0x40>)
 80006ca:	4c0c      	ldr	r4, [pc, #48]	; (80006fc <__libc_init_array+0x44>)
 80006cc:	f000 f818 	bl	8000700 <_init>
 80006d0:	1ba4      	subs	r4, r4, r6
 80006d2:	10a4      	asrs	r4, r4, #2
 80006d4:	2500      	movs	r5, #0
 80006d6:	42a5      	cmp	r5, r4
 80006d8:	d105      	bne.n	80006e6 <__libc_init_array+0x2e>
 80006da:	bd70      	pop	{r4, r5, r6, pc}
 80006dc:	f856 3025 	ldr.w	r3, [r6, r5, lsl #2]
 80006e0:	4798      	blx	r3
 80006e2:	3501      	adds	r5, #1
 80006e4:	e7ee      	b.n	80006c4 <__libc_init_array+0xc>
 80006e6:	f856 3025 	ldr.w	r3, [r6, r5, lsl #2]
 80006ea:	4798      	blx	r3
 80006ec:	3501      	adds	r5, #1
 80006ee:	e7f2      	b.n	80006d6 <__libc_init_array+0x1e>
 80006f0:	08000718 	.word	0x08000718
 80006f4:	08000718 	.word	0x08000718
 80006f8:	08000718 	.word	0x08000718
 80006fc:	0800071c 	.word	0x0800071c

08000700 <_init>:
 8000700:	b5f8      	push	{r3, r4, r5, r6, r7, lr}
 8000702:	bf00      	nop
 8000704:	bcf8      	pop	{r3, r4, r5, r6, r7}
 8000706:	bc08      	pop	{r3}
 8000708:	469e      	mov	lr, r3
 800070a:	4770      	bx	lr

0800070c <_fini>:
 800070c:	b5f8      	push	{r3, r4, r5, r6, r7, lr}
 800070e:	bf00      	nop
 8000710:	bcf8      	pop	{r3, r4, r5, r6, r7}
 8000712:	bc08      	pop	{r3}
 8000714:	469e      	mov	lr, r3
 8000716:	4770      	bx	lr
